; Function Attrs: nounwind uwtable
define float @Abc_NtkGetAreaSpecial(ptr noundef readonly captures(none) %0) local_unnamed_addr #0 {
  %2 = getelementptr inbounds nuw i8, ptr %0, i64 32
  %3 = load ptr, ptr %2, align 8
  %4 = getelementptr i8, ptr %3, i64 4
  %.val1316 = load i32, ptr %4, align 4
  %5 = icmp sgt i32 %.val1316, 0
  br i1 %5, label %.lr.ph, label %.critedge

.lr.ph:                                           ; preds = %1, %22
  %6 = phi ptr [ %23, %22 ], [ %3, %1 ]
  %indvars.iv = phi i64 [ %indvars.iv.next, %22 ], [ 0, %1 ]
  %.018 = phi i32 [ %.1, %22 ], [ 0, %1 ]
  %7 = getelementptr i8, ptr %6, i64 8
  %.val14.val = load ptr, ptr %7, align 8
  %8 = getelementptr inbounds nuw ptr, ptr %.val14.val, i64 %indvars.iv
  %9 = load ptr, ptr %8, align 8
  %10 = icmp eq ptr %9, null
  br i1 %10, label %22, label %11

11:                                               ; preds = %.lr.ph
  %12 = getelementptr i8, ptr %9, i64 20
  %.val15 = load i32, ptr %12, align 4
  %13 = and i32 %.val15, 15
  %.not = icmp eq i32 %13, 7
  br i1 %.not, label %sub_0, label %22

sub_0:                                            ; preds = %11
  %14 = getelementptr inbounds nuw i8, ptr %9, i64 56
  %15 = load ptr, ptr %14, align 8
  %16 = tail call ptr @Mio_GateReadName(ptr noundef %15) #19
  %17 = load i8, ptr %16, align 1
  %.not19 = icmp eq i8 %17, 109
  br i1 %.not19, label %sub_1, label %.tail

sub_1:                                            ; preds = %sub_0
  %18 = getelementptr inbounds nuw i8, ptr %16, i64 1
  %19 = load i8, ptr %18, align 1
  %20 = icmp eq i8 %19, 109
  %21 = zext i1 %20 to i32
  br label %.tail

.tail:                                            ; preds = %sub_0, %sub_1
  %.not12 = phi i32 [ 0, %sub_0 ], [ %21, %sub_1 ]
  %spec.select = add nsw i32 %.not12, %.018
  %.pre = load ptr, ptr %2, align 8
  br label %22

22:                                               ; preds = %.tail, %11, %.lr.ph
  %23 = phi ptr [ %6, %.lr.ph ], [ %6, %11 ], [ %.pre, %.tail ]
  %.1 = phi i32 [ %.018, %.lr.ph ], [ %.018, %11 ], [ %spec.select, %.tail ]
  %indvars.iv.next = add nuw nsw i64 %indvars.iv, 1
  %24 = getelementptr i8, ptr %23, i64 4
  %.val13 = load i32, ptr %24, align 4
  %25 = sext i32 %.val13 to i64
  %26 = icmp slt i64 %indvars.iv.next, %25
  br i1 %26, label %.lr.ph, label %.critedge.loopexit, !llvm.loop !9

.critedge.loopexit:                               ; preds = %22
  %27 = sitofp i32 %.1 to double
  br label %.critedge

.critedge:                                        ; preds = %.critedge.loopexit, %1
  %.0.lcssa = phi double [ 0.000000e+00, %1 ], [ %27, %.critedge.loopexit ]
  %28 = getelementptr i8, ptr %0, i64 124
  %.val = load i32, ptr %28, align 4
  %29 = sitofp i32 %.val to double
  %30 = fdiv double %.0.lcssa, %29
  %31 = fptrunc double %30 to float
  ret float %31
}